/*
 * Intel ACPI Component Architecture
 * AML Disassembler version 20130823-32 [Sep 16 2013]
 * Copyright (c) 2000 - 2013 Intel Corporation
 * 
 * Disassembly of /Users/holoto/Desktop/Tools/DarwinDumperReports/000_2016-03-22_21-36-20_MacBookPro9,2/DarwinDumper_2.9.9.2_INSYDE_Corp._X64_Cap_holoto/ACPI Tables/AML/ASPT-1.aml, Tue Mar 22 21:36:50 2016
 *
 * ACPI Data Table [ASPT]
 *
 * Format: [HexOffset DecimalOffset ByteLength]  FieldName : FieldValue
 */

[000h 0000   4]                    Signature : "ASPT"    
[004h 0004   4]                 Table Length : 00000034
[008h 0008   1]                     Revision : 07
[009h 0009   1]                     Checksum : 98
[00Ah 0010   6]                       Oem ID : "ACRSYS"
[010h 0016   8]                 Oem Table ID : "ACRPRDCT"
[018h 0024   4]                 Oem Revision : 00000001
[01Ch 0028   4]              Asl Compiler ID : "1025"
[020h 0032   4]        Asl Compiler Revision : 00040000


**** Unknown ACPI table type [ASPT]


Raw Table Data: Length 52 (0x34)

  0000: 41 53 50 54 34 00 00 00 07 98 41 43 52 53 59 53  ASPT4.....ACRSYS
  0010: 41 43 52 50 52 44 43 54 01 00 00 00 31 30 32 35  ACRPRDCT....1025
  0020: 00 00 04 00 00 00 00 00 00 00 00 00 00 00 00 00  ................
  0030: 00 00 00 00                                      ....
