/*
 * Intel ACPI Component Architecture
 * AML Disassembler version 20130823-32 [Sep 16 2013]
 * Copyright (c) 2000 - 2013 Intel Corporation
 * 
 * Disassembly of /Users/holoto/Desktop/Tools/DarwinDumperReports/000_2016-03-22_21-36-20_MacBookPro9,2/DarwinDumper_2.9.9.2_INSYDE_Corp._X64_Cap_holoto/ACPI Tables/AML/FPDT-2.aml, Tue Mar 22 21:37:28 2016
 *
 * ACPI Data Table [FPDT]
 *
 * Format: [HexOffset DecimalOffset ByteLength]  FieldName : FieldValue
 */

[000h 0000   4]                    Signature : "FPDT"    [Firmware Performance Data Table]
[004h 0004   4]                 Table Length : 00000044
[008h 0008   1]                     Revision : 01
[009h 0009   1]                     Checksum : 3F
[00Ah 0010   6]                       Oem ID : "ACRSYS"
[010h 0016   8]                 Oem Table ID : "ACRPRDCT"
[018h 0024   4]                 Oem Revision : 00000001
[01Ch 0028   4]              Asl Compiler ID : "1025"
[020h 0032   4]        Asl Compiler Revision : 00040000


[024h 0036   2]                Subtable Type : 0000
[026h 0038   1]                       Length : 10
[027h 0039   1]                     Revision : 01
[028h 0040   4]                     Reserved : 00000000
[02Ch 0044   8]                    Reset End : 00000000A6FE1F98
**** ACPI table terminates in the middle of a data structure!

Raw Table Data: Length 68 (0x44)

  0000: 46 50 44 54 44 00 00 00 01 3F 41 43 52 53 59 53  FPDTD....?ACRSYS
  0010: 41 43 52 50 52 44 43 54 01 00 00 00 31 30 32 35  ACRPRDCT....1025
  0020: 00 00 04 00 00 00 10 01 00 00 00 00 98 1F FE A6  ................
  0030: 00 00 00 00 01 00 10 01 00 00 00 00 18 1F FE A6  ................
  0040: 00 00 00 00                                      ....
